target datalayout = "e-m:e-p270:32:32-p271:32:32-p272:64:64-i64:64-i128:128-f80:128-n8:16:32:64-S128"
target triple = "x86_64-pc-linux-gnu"

%struct.ImVec2 = type { float, float }
%struct.ImRect = type { %struct.ImVec2, %struct.ImVec2 }
%struct.ImGuiTextBuffer = type { %struct.ImVector.34 }
%struct.ImVector.34 = type { i32, i32, ptr }
%struct.ImGuiTabBar = type { ptr, %struct.ImVector.43, i32, i32, i32, i32, i32, i32, i32, %struct.ImRect, float, float, float, float, float, float, float, float, float, float, float, float, i32, i16, i8, i8, i8, i8, i16, i16, float, %struct.ImVec2, %struct.ImVec2, %struct.ImGuiTextBuffer }
%struct.ImVector.43 = type { i32, i32, ptr }
%struct.ImGuiTabItem = type <{ i32, i32, i32, i32, float, float, float, float, i32, i16, i16, i8, [3 x i8] }>

; Function Attrs: mustprogress nounwind uwtable
define dso_local void @_ZN5ImGui18TabBarQueueReorderEP11ImGuiTabBarP12ImGuiTabItemi(ptr noundef %0, ptr noundef %1, i32 noundef %2) #4 {
  %4 = alloca ptr, align 8
  %5 = alloca ptr, align 8
  %6 = alloca i32, align 4
  store ptr %0, ptr %4, align 8, !tbaa !807
  store ptr %1, ptr %5, align 8, !tbaa !849
  store i32 %2, ptr %6, align 4, !tbaa !9
  %7 = load ptr, ptr %5, align 8, !tbaa !849
  %8 = getelementptr inbounds nuw %struct.ImGuiTabItem, ptr %7, i32 0, i32 0
  %9 = load i32, ptr %8, align 4, !tbaa !856
  %10 = load ptr, ptr %4, align 8, !tbaa !807
  %11 = getelementptr inbounds nuw %struct.ImGuiTabBar, ptr %10, i32 0, i32 22
  store i32 %9, ptr %11, align 4, !tbaa !865
  %12 = load i32, ptr %6, align 4, !tbaa !9
  %13 = trunc i32 %12 to i16
  %14 = load ptr, ptr %4, align 8, !tbaa !807
  %15 = getelementptr inbounds nuw %struct.ImGuiTabBar, ptr %14, i32 0, i32 23
  store i16 %13, ptr %15, align 8, !tbaa !899
  ret void
}