; Function Attrs: mustprogress nofree norecurse nosync nounwind willreturn memory(argmem: readwrite) uwtable
define dso_local void @_ZN5ImGui18TabBarQueueReorderEP11ImGuiTabBarP12ImGuiTabItemi(ptr noundef writeonly captures(none) initializes((116, 122)) %0, ptr noundef readonly captures(none) %1, i32 noundef %2) local_unnamed_addr #15 {
  %4 = load i32, ptr %1, align 4, !tbaa !754
  %5 = getelementptr inbounds nuw i8, ptr %0, i64 116
  store i32 %4, ptr %5, align 4, !tbaa !766
  %6 = trunc i32 %2 to i16
  %7 = getelementptr inbounds nuw i8, ptr %0, i64 120
  store i16 %6, ptr %7, align 8, !tbaa !768
  ret void
}